target datalayout = "e-m:e-p270:32:32-p271:32:32-p272:64:64-i64:64-i128:128-f80:128-n8:16:32:64-S128"
target triple = "x86_64-pc-linux-gnu"

%struct.Vec_Ptr_t_ = type { i32, i32, ptr }
%struct.Vec_Int_t_ = type { i32, i32, ptr }
%struct.Abc_Obj_t_ = type { ptr, ptr, i32, i32, %struct.Vec_Int_t_, %struct.Vec_Int_t_, %union.anon, %union.anon.0 }
%union.anon = type { ptr }
%union.anon.0 = type { ptr }
%struct.Abc_Ntk_t_ = type { i32, i32, ptr, ptr, ptr, ptr, ptr, ptr, ptr, ptr, ptr, ptr, ptr, [11 x i32], i32, i32, i32, i32, ptr, i32, ptr, ptr, i32, i32, i32, double, i32, %struct.Vec_Int_t_, ptr, ptr, ptr, ptr, ptr, float, i32, ptr, ptr, ptr, ptr, ptr, ptr, ptr, ptr, ptr, ptr, ptr, ptr, ptr, ptr, ptr, ptr, ptr, ptr, ptr, ptr, ptr, ptr }

; Function Attrs: inlinehint nounwind uwtable
define internal void @Vec_PtrGrow(ptr noundef %0, i32 noundef %1) #5 {
  %3 = alloca ptr, align 8
  %4 = alloca i32, align 4
  store ptr %0, ptr %3, align 8, !tbaa !47
  store i32 %1, ptr %4, align 4, !tbaa !3
  %5 = load ptr, ptr %3, align 8, !tbaa !47
  %6 = getelementptr inbounds nuw %struct.Vec_Ptr_t_, ptr %5, i32 0, i32 0
  %7 = load i32, ptr %6, align 8, !tbaa !50
  %8 = load i32, ptr %4, align 4, !tbaa !3
  %9 = icmp sge i32 %7, %8
  br i1 %9, label %10, label %11

10:                                               ; preds = %2
  br label %36

11:                                               ; preds = %2
  %12 = load ptr, ptr %3, align 8, !tbaa !47
  %13 = getelementptr inbounds nuw %struct.Vec_Ptr_t_, ptr %12, i32 0, i32 2
  %14 = load ptr, ptr %13, align 8, !tbaa !51
  %15 = icmp ne ptr %14, null
  br i1 %15, label %16, label %24

16:                                               ; preds = %11
  %17 = load ptr, ptr %3, align 8, !tbaa !47
  %18 = getelementptr inbounds nuw %struct.Vec_Ptr_t_, ptr %17, i32 0, i32 2
  %19 = load ptr, ptr %18, align 8, !tbaa !51
  %20 = load i32, ptr %4, align 4, !tbaa !3
  %21 = sext i32 %20 to i64
  %22 = mul i64 8, %21
  %23 = call ptr @realloc(ptr noundef %19, i64 noundef %22) #13
  br label %29

24:                                               ; preds = %11
  %25 = load i32, ptr %4, align 4, !tbaa !3
  %26 = sext i32 %25 to i64
  %27 = mul i64 8, %26
  %28 = call noalias ptr @malloc(i64 noundef %27) #11
  br label %29

29:                                               ; preds = %24, %16
  %30 = phi ptr [ %23, %16 ], [ %28, %24 ]
  %31 = load ptr, ptr %3, align 8, !tbaa !47
  %32 = getelementptr inbounds nuw %struct.Vec_Ptr_t_, ptr %31, i32 0, i32 2
  store ptr %30, ptr %32, align 8, !tbaa !51
  %33 = load i32, ptr %4, align 4, !tbaa !3
  %34 = load ptr, ptr %3, align 8, !tbaa !47
  %35 = getelementptr inbounds nuw %struct.Vec_Ptr_t_, ptr %34, i32 0, i32 0
  store i32 %33, ptr %35, align 8, !tbaa !50
  br label %36

36:                                               ; preds = %29, %10
  ret void
}

; Function Attrs: inlinehint nounwind uwtable
define internal void @Vec_PtrPush(ptr noundef %0, ptr noundef %1) #5 {
  %3 = alloca ptr, align 8
  %4 = alloca ptr, align 8
  store ptr %0, ptr %3, align 8, !tbaa !47
  store ptr %1, ptr %4, align 8, !tbaa !57
  %5 = load ptr, ptr %3, align 8, !tbaa !47
  %6 = getelementptr inbounds nuw %struct.Vec_Ptr_t_, ptr %5, i32 0, i32 1
  %7 = load i32, ptr %6, align 4, !tbaa !48
  %8 = load ptr, ptr %3, align 8, !tbaa !47
  %9 = getelementptr inbounds nuw %struct.Vec_Ptr_t_, ptr %8, i32 0, i32 0
  %10 = load i32, ptr %9, align 8, !tbaa !50
  %11 = icmp eq i32 %7, %10
  br i1 %11, label %12, label %26

12:                                               ; preds = %2
  %13 = load ptr, ptr %3, align 8, !tbaa !47
  %14 = getelementptr inbounds nuw %struct.Vec_Ptr_t_, ptr %13, i32 0, i32 0
  %15 = load i32, ptr %14, align 8, !tbaa !50
  %16 = icmp slt i32 %15, 16
  br i1 %16, label %17, label %19

17:                                               ; preds = %12
  %18 = load ptr, ptr %3, align 8, !tbaa !47
  call void @Vec_PtrGrow(ptr noundef %18, i32 noundef 16)
  br label %25

19:                                               ; preds = %12
  %20 = load ptr, ptr %3, align 8, !tbaa !47
  %21 = load ptr, ptr %3, align 8, !tbaa !47
  %22 = getelementptr inbounds nuw %struct.Vec_Ptr_t_, ptr %21, i32 0, i32 0
  %23 = load i32, ptr %22, align 8, !tbaa !50
  %24 = mul nsw i32 2, %23
  call void @Vec_PtrGrow(ptr noundef %20, i32 noundef %24)
  br label %25

25:                                               ; preds = %19, %17
  br label %26

26:                                               ; preds = %25, %2
  %27 = load ptr, ptr %4, align 8, !tbaa !57
  %28 = load ptr, ptr %3, align 8, !tbaa !47
  %29 = getelementptr inbounds nuw %struct.Vec_Ptr_t_, ptr %28, i32 0, i32 2
  %30 = load ptr, ptr %29, align 8, !tbaa !51
  %31 = load ptr, ptr %3, align 8, !tbaa !47
  %32 = getelementptr inbounds nuw %struct.Vec_Ptr_t_, ptr %31, i32 0, i32 1
  %33 = load i32, ptr %32, align 4, !tbaa !48
  %34 = add nsw i32 %33, 1
  store i32 %34, ptr %32, align 4, !tbaa !48
  %35 = sext i32 %33 to i64
  %36 = getelementptr inbounds ptr, ptr %30, i64 %35
  store ptr %27, ptr %36, align 8, !tbaa !57
  ret void
}

; Function Attrs: inlinehint nounwind uwtable
define internal i32 @Vec_PtrPushUnique(ptr noundef %0, ptr noundef %1) #5 {
  %3 = alloca i32, align 4
  %4 = alloca ptr, align 8
  %5 = alloca ptr, align 8
  %6 = alloca i32, align 4
  %7 = alloca i32, align 4
  store ptr %0, ptr %4, align 8, !tbaa !47
  store ptr %1, ptr %5, align 8, !tbaa !57
  call void @llvm.lifetime.start.p0(i64 4, ptr %6) #10
  store i32 0, ptr %6, align 4, !tbaa !3
  br label %8

8:                                                ; preds = %26, %2
  %9 = load i32, ptr %6, align 4, !tbaa !3
  %10 = load ptr, ptr %4, align 8, !tbaa !47
  %11 = getelementptr inbounds nuw %struct.Vec_Ptr_t_, ptr %10, i32 0, i32 1
  %12 = load i32, ptr %11, align 4, !tbaa !48
  %13 = icmp slt i32 %9, %12
  br i1 %13, label %14, label %29

14:                                               ; preds = %8
  %15 = load ptr, ptr %4, align 8, !tbaa !47
  %16 = getelementptr inbounds nuw %struct.Vec_Ptr_t_, ptr %15, i32 0, i32 2
  %17 = load ptr, ptr %16, align 8, !tbaa !51
  %18 = load i32, ptr %6, align 4, !tbaa !3
  %19 = sext i32 %18 to i64
  %20 = getelementptr inbounds ptr, ptr %17, i64 %19
  %21 = load ptr, ptr %20, align 8, !tbaa !57
  %22 = load ptr, ptr %5, align 8, !tbaa !57
  %23 = icmp eq ptr %21, %22
  br i1 %23, label %24, label %25

24:                                               ; preds = %14
  store i32 1, ptr %3, align 4
  store i32 1, ptr %7, align 4
  br label %32

25:                                               ; preds = %14
  br label %26

26:                                               ; preds = %25
  %27 = load i32, ptr %6, align 4, !tbaa !3
  %28 = add nsw i32 %27, 1
  store i32 %28, ptr %6, align 4, !tbaa !3
  br label %8, !llvm.loop !107

29:                                               ; preds = %8
  %30 = load ptr, ptr %4, align 8, !tbaa !47
  %31 = load ptr, ptr %5, align 8, !tbaa !57
  call void @Vec_PtrPush(ptr noundef %30, ptr noundef %31)
  store i32 0, ptr %3, align 4
  store i32 1, ptr %7, align 4
  br label %32

32:                                               ; preds = %29, %24
  call void @llvm.lifetime.end.p0(i64 4, ptr %6) #10
  %33 = load i32, ptr %3, align 4
  ret i32 %33
}

; Function Attrs: inlinehint nounwind uwtable
define internal ptr @Abc_ObjFanout(ptr noundef %0, i32 noundef %1) #5 {
  %3 = alloca ptr, align 8
  %4 = alloca i32, align 4
  store ptr %0, ptr %3, align 8, !tbaa !81
  store i32 %1, ptr %4, align 4, !tbaa !3
  %5 = load ptr, ptr %3, align 8, !tbaa !81
  %6 = getelementptr inbounds nuw %struct.Abc_Obj_t_, ptr %5, i32 0, i32 0
  %7 = load ptr, ptr %6, align 8, !tbaa !97
  %8 = getelementptr inbounds nuw %struct.Abc_Ntk_t_, ptr %7, i32 0, i32 5
  %9 = load ptr, ptr %8, align 8, !tbaa !98
  %10 = getelementptr inbounds nuw %struct.Vec_Ptr_t_, ptr %9, i32 0, i32 2
  %11 = load ptr, ptr %10, align 8, !tbaa !51
  %12 = load ptr, ptr %3, align 8, !tbaa !81
  %13 = getelementptr inbounds nuw %struct.Abc_Obj_t_, ptr %12, i32 0, i32 5
  %14 = getelementptr inbounds nuw %struct.Vec_Int_t_, ptr %13, i32 0, i32 2
  %15 = load ptr, ptr %14, align 8, !tbaa !99
  %16 = load i32, ptr %4, align 4, !tbaa !3
  %17 = sext i32 %16 to i64
  %18 = getelementptr inbounds i32, ptr %15, i64 %17
  %19 = load i32, ptr %18, align 4, !tbaa !3
  %20 = sext i32 %19 to i64
  %21 = getelementptr inbounds ptr, ptr %11, i64 %20
  %22 = load ptr, ptr %21, align 8, !tbaa !57
  ret ptr %22
}

; Function Attrs: inlinehint nounwind uwtable
define internal i32 @Abc_ObjFanoutNum(ptr noundef %0) #5 {
  %2 = alloca ptr, align 8
  store ptr %0, ptr %2, align 8, !tbaa !81
  %3 = load ptr, ptr %2, align 8, !tbaa !81
  %4 = getelementptr inbounds nuw %struct.Abc_Obj_t_, ptr %3, i32 0, i32 5
  %5 = getelementptr inbounds nuw %struct.Vec_Int_t_, ptr %4, i32 0, i32 1
  %6 = load i32, ptr %5, align 4, !tbaa !95
  ret i32 %6
}

; Function Attrs: nounwind uwtable
define void @Abc_NtkDontCareWinCollectRoots_rec(ptr noundef %0, ptr noundef %1) #0 {
  %3 = alloca ptr, align 8
  %4 = alloca ptr, align 8
  %5 = alloca ptr, align 8
  %6 = alloca i32, align 4
  %7 = alloca i32, align 4
  store ptr %0, ptr %3, align 8, !tbaa !81
  store ptr %1, ptr %4, align 8, !tbaa !47
  call void @llvm.lifetime.start.p0(i64 8, ptr %5) #10
  call void @llvm.lifetime.start.p0(i64 4, ptr %6) #10
  store i32 0, ptr %6, align 4, !tbaa !3
  br label %8

8:                                                ; preds = %25, %2
  %9 = load i32, ptr %6, align 4, !tbaa !3
  %10 = load ptr, ptr %3, align 8, !tbaa !81
  %11 = call i32 @Abc_ObjFanoutNum(ptr noundef %10)
  %12 = icmp slt i32 %9, %11
  br i1 %12, label %13, label %17

13:                                               ; preds = %8
  %14 = load ptr, ptr %3, align 8, !tbaa !81
  %15 = load i32, ptr %6, align 4, !tbaa !3
  %16 = call ptr @Abc_ObjFanout(ptr noundef %14, i32 noundef %15)
  store ptr %16, ptr %5, align 8, !tbaa !81
  br label %17

17:                                               ; preds = %13, %8
  %18 = phi i1 [ false, %8 ], [ true, %13 ]
  br i1 %18, label %19, label %28

19:                                               ; preds = %17
  %20 = load ptr, ptr %5, align 8, !tbaa !81
  %21 = call i32 @Abc_NodeIsTravIdCurrent(ptr noundef %20)
  %22 = icmp ne i32 %21, 0
  br i1 %22, label %24, label %23

23:                                               ; preds = %19
  br label %28

24:                                               ; preds = %19
  br label %25

25:                                               ; preds = %24
  %26 = load i32, ptr %6, align 4, !tbaa !3
  %27 = add nsw i32 %26, 1
  store i32 %27, ptr %6, align 4, !tbaa !3
  br label %8, !llvm.loop !105

28:                                               ; preds = %23, %17
  %29 = load i32, ptr %6, align 4, !tbaa !3
  %30 = load ptr, ptr %3, align 8, !tbaa !81
  %31 = call i32 @Abc_ObjFanoutNum(ptr noundef %30)
  %32 = icmp slt i32 %29, %31
  br i1 %32, label %33, label %37

33:                                               ; preds = %28
  %34 = load ptr, ptr %4, align 8, !tbaa !47
  %35 = load ptr, ptr %3, align 8, !tbaa !81
  %36 = call i32 @Vec_PtrPushUnique(ptr noundef %34, ptr noundef %35)
  store i32 1, ptr %7, align 4
  br label %56

37:                                               ; preds = %28
  store i32 0, ptr %6, align 4, !tbaa !3
  br label %38

38:                                               ; preds = %52, %37
  %39 = load i32, ptr %6, align 4, !tbaa !3
  %40 = load ptr, ptr %3, align 8, !tbaa !81
  %41 = call i32 @Abc_ObjFanoutNum(ptr noundef %40)
  %42 = icmp slt i32 %39, %41
  br i1 %42, label %43, label %47

43:                                               ; preds = %38
  %44 = load ptr, ptr %3, align 8, !tbaa !81
  %45 = load i32, ptr %6, align 4, !tbaa !3
  %46 = call ptr @Abc_ObjFanout(ptr noundef %44, i32 noundef %45)
  store ptr %46, ptr %5, align 8, !tbaa !81
  br label %47

47:                                               ; preds = %43, %38
  %48 = phi i1 [ false, %38 ], [ true, %43 ]
  br i1 %48, label %49, label %55

49:                                               ; preds = %47
  %50 = load ptr, ptr %5, align 8, !tbaa !81
  %51 = load ptr, ptr %4, align 8, !tbaa !47
  call void @Abc_NtkDontCareWinCollectRoots_rec(ptr noundef %50, ptr noundef %51)
  br label %52

52:                                               ; preds = %49
  %53 = load i32, ptr %6, align 4, !tbaa !3
  %54 = add nsw i32 %53, 1
  store i32 %54, ptr %6, align 4, !tbaa !3
  br label %38, !llvm.loop !106

55:                                               ; preds = %47
  store i32 0, ptr %7, align 4
  br label %56

56:                                               ; preds = %55, %33
  call void @llvm.lifetime.end.p0(i64 4, ptr %6) #10
  call void @llvm.lifetime.end.p0(i64 8, ptr %5) #10
  %57 = load i32, ptr %7, align 4
  switch i32 %57, label %59 [
    i32 0, label %58
    i32 1, label %58
  ]

58:                                               ; preds = %56, %56
  ret void

59:                                               ; preds = %56
  unreachable
}