; Function Attrs: nounwind uwtable
define void @Abc_NtkDontCareWinCollectRoots_rec(ptr noundef %0, ptr noundef captures(none) %1) local_unnamed_addr #0 {
  %3 = getelementptr i8, ptr %0, i64 44
  %.val1925 = load i32, ptr %3, align 4, !tbaa !94
  %4 = icmp sgt i32 %.val1925, 0
  br i1 %4, label %.lr.ph, label %.critedge

.lr.ph:                                           ; preds = %2
  %5 = getelementptr i8, ptr %0, i64 48
  br label %6

6:                                                ; preds = %.lr.ph, %15
  %indvars.iv = phi i64 [ 0, %.lr.ph ], [ %indvars.iv.next, %15 ]
  %.val22 = load ptr, ptr %0, align 8, !tbaa !78
  %.val23 = load ptr, ptr %5, align 8, !tbaa !95
  %7 = getelementptr i8, ptr %.val22, i64 32
  %.val22.val = load ptr, ptr %7, align 8, !tbaa !96
  %8 = getelementptr i8, ptr %.val22.val, i64 8
  %.val22.val.val = load ptr, ptr %8, align 8, !tbaa !24
  %9 = getelementptr inbounds nuw i32, ptr %.val23, i64 %indvars.iv
  %10 = load i32, ptr %9, align 4, !tbaa !48
  %11 = sext i32 %10 to i64
  %12 = getelementptr inbounds ptr, ptr %.val22.val.val, i64 %11
  %13 = load ptr, ptr %12, align 8, !tbaa !44
  %14 = tail call fastcc i32 @Abc_NodeIsTravIdCurrent(ptr noundef %13)
  %.not = icmp eq i32 %14, 0
  %.val18.pre.pre = load i32, ptr %3, align 4, !tbaa !94
  br i1 %.not, label %.critedge.loopexit, label %15

15:                                               ; preds = %6
  %indvars.iv.next = add nuw nsw i64 %indvars.iv, 1
  %16 = sext i32 %.val18.pre.pre to i64
  %17 = icmp slt i64 %indvars.iv.next, %16
  br i1 %17, label %6, label %.critedge.loopexit, !llvm.loop !102

.critedge.loopexit:                               ; preds = %15, %6
  %.0.lcssa.ph.in = phi i64 [ %indvars.iv, %6 ], [ %indvars.iv.next, %15 ]
  %.0.lcssa.ph = trunc i64 %.0.lcssa.ph.in to i32
  br label %.critedge

.critedge:                                        ; preds = %.critedge.loopexit, %2
  %.val29 = phi i32 [ %.val1925, %2 ], [ %.val18.pre.pre, %.critedge.loopexit ]
  %.0.lcssa = phi i32 [ 0, %2 ], [ %.0.lcssa.ph, %.critedge.loopexit ]
  %18 = icmp slt i32 %.0.lcssa, %.val29
  br i1 %18, label %21, label %.preheader

.preheader:                                       ; preds = %.critedge
  %19 = icmp sgt i32 %.val29, 0
  br i1 %19, label %.lr.ph31, label %.critedge2

.lr.ph31:                                         ; preds = %.preheader
  %20 = getelementptr i8, ptr %0, i64 48
  br label %61

21:                                               ; preds = %.critedge
  %22 = getelementptr inbounds nuw i8, ptr %1, i64 4
  %23 = load i32, ptr %22, align 4, !tbaa !21
  %24 = icmp sgt i32 %23, 0
  br i1 %24, label %.lr.ph.i, label %._crit_edge.i

.lr.ph.i:                                         ; preds = %21
  %25 = getelementptr inbounds nuw i8, ptr %1, i64 8
  %26 = load ptr, ptr %25, align 8, !tbaa !24
  %wide.trip.count.i = zext nneg i32 %23 to i64
  br label %28

27:                                               ; preds = %28
  %indvars.iv.next.i = add nuw nsw i64 %indvars.iv.i, 1
  %exitcond.not.i = icmp eq i64 %indvars.iv.next.i, %wide.trip.count.i
  br i1 %exitcond.not.i, label %._crit_edge.i, label %28, !llvm.loop !103

28:                                               ; preds = %27, %.lr.ph.i
  %indvars.iv.i = phi i64 [ 0, %.lr.ph.i ], [ %indvars.iv.next.i, %27 ]
  %29 = getelementptr inbounds nuw ptr, ptr %26, i64 %indvars.iv.i
  %30 = load ptr, ptr %29, align 8, !tbaa !44
  %31 = icmp eq ptr %30, %0
  br i1 %31, label %.critedge2, label %27

._crit_edge.i:                                    ; preds = %27, %21
  %32 = load i32, ptr %1, align 8, !tbaa !23
  %33 = icmp eq i32 %23, %32
  br i1 %33, label %34, label %.Vec_PtrGrow.exit11_crit_edge.i.i

.Vec_PtrGrow.exit11_crit_edge.i.i:                ; preds = %._crit_edge.i
  %.phi.trans.insert.i.i = getelementptr inbounds nuw i8, ptr %1, i64 8
  %.pre.i.i = load ptr, ptr %.phi.trans.insert.i.i, align 8, !tbaa !24
  br label %Vec_PtrPush.exit.i

34:                                               ; preds = %._crit_edge.i
  %35 = icmp slt i32 %23, 16
  br i1 %35, label %36, label %44

36:                                               ; preds = %34
  %37 = getelementptr inbounds nuw i8, ptr %1, i64 8
  %38 = load ptr, ptr %37, align 8, !tbaa !24
  %.not9.i.i.i = icmp eq ptr %38, null
  br i1 %.not9.i.i.i, label %41, label %39

39:                                               ; preds = %36
  %40 = tail call dereferenceable_or_null(128) ptr @realloc(ptr noundef nonnull %38, i64 noundef 128) #22
  br label %Vec_PtrGrow.exit.i.i

41:                                               ; preds = %36
  %42 = tail call noalias dereferenceable_or_null(128) ptr @malloc(i64 noundef 128) #20
  br label %Vec_PtrGrow.exit.i.i

Vec_PtrGrow.exit.i.i:                             ; preds = %41, %39
  %43 = phi ptr [ %40, %39 ], [ %42, %41 ]
  store ptr %43, ptr %37, align 8, !tbaa !24
  store i32 16, ptr %1, align 8, !tbaa !23
  br label %Vec_PtrPush.exit.i

44:                                               ; preds = %34
  %45 = shl nuw nsw i32 %23, 1
  %46 = getelementptr inbounds nuw i8, ptr %1, i64 8
  %47 = load ptr, ptr %46, align 8, !tbaa !24
  %.not9.i10.i.i = icmp eq ptr %47, null
  %48 = zext nneg i32 %45 to i64
  %49 = shl nuw nsw i64 %48, 3
  br i1 %.not9.i10.i.i, label %52, label %50

50:                                               ; preds = %44
  %51 = tail call ptr @realloc(ptr noundef nonnull %47, i64 noundef %49) #22
  br label %54

52:                                               ; preds = %44
  %53 = tail call noalias ptr @malloc(i64 noundef %49) #20
  br label %54

54:                                               ; preds = %52, %50
  %55 = phi ptr [ %51, %50 ], [ %53, %52 ]
  store ptr %55, ptr %46, align 8, !tbaa !24
  store i32 %45, ptr %1, align 8, !tbaa !23
  br label %Vec_PtrPush.exit.i

Vec_PtrPush.exit.i:                               ; preds = %54, %Vec_PtrGrow.exit.i.i, %.Vec_PtrGrow.exit11_crit_edge.i.i
  %56 = phi ptr [ %.pre.i.i, %.Vec_PtrGrow.exit11_crit_edge.i.i ], [ %55, %54 ], [ %43, %Vec_PtrGrow.exit.i.i ]
  %57 = load i32, ptr %22, align 4, !tbaa !21
  %58 = add nsw i32 %57, 1
  store i32 %58, ptr %22, align 4, !tbaa !21
  %59 = sext i32 %57 to i64
  %60 = getelementptr inbounds ptr, ptr %56, i64 %59
  store ptr %0, ptr %60, align 8, !tbaa !44
  br label %.critedge2

61:                                               ; preds = %.lr.ph31, %61
  %indvars.iv34 = phi i64 [ 0, %.lr.ph31 ], [ %indvars.iv.next35, %61 ]
  %.val20 = load ptr, ptr %0, align 8, !tbaa !78
  %.val21 = load ptr, ptr %20, align 8, !tbaa !95
  %62 = getelementptr i8, ptr %.val20, i64 32
  %.val20.val = load ptr, ptr %62, align 8, !tbaa !96
  %63 = getelementptr i8, ptr %.val20.val, i64 8
  %.val20.val.val = load ptr, ptr %63, align 8, !tbaa !24
  %64 = getelementptr inbounds nuw i32, ptr %.val21, i64 %indvars.iv34
  %65 = load i32, ptr %64, align 4, !tbaa !48
  %66 = sext i32 %65 to i64
  %67 = getelementptr inbounds ptr, ptr %.val20.val.val, i64 %66
  %68 = load ptr, ptr %67, align 8, !tbaa !44
  tail call void @Abc_NtkDontCareWinCollectRoots_rec(ptr noundef %68, ptr noundef %1)
  %indvars.iv.next35 = add nuw nsw i64 %indvars.iv34, 1
  %.val = load i32, ptr %3, align 4, !tbaa !94
  %69 = sext i32 %.val to i64
  %70 = icmp slt i64 %indvars.iv.next35, %69
  br i1 %70, label %61, label %.critedge2, !llvm.loop !104

.critedge2:                                       ; preds = %61, %28, %.preheader, %Vec_PtrPush.exit.i
  ret void
}